; Function Attrs: uwtable
define internal noundef zeroext i1 @_ZThn8_N12_GLOBAL__N_12RW5writeEPKvm(ptr nocapture noundef readonly %0, ptr noundef %1, i64 noundef %2) unnamed_addr #11 align 2 {
  %4 = getelementptr inbounds i8, ptr %0, i64 24
  %5 = load ptr, ptr %4, align 8
  %6 = load ptr, ptr %5, align 8
  %7 = getelementptr inbounds i8, ptr %6, i64 32
  %8 = load ptr, ptr %7, align 8
  %9 = tail call noundef zeroext i1 %8(ptr noundef nonnull align 8 dereferenceable(8) %5, ptr noundef %1, i64 noundef %2)
  ret i1 %9
}